; Function Attrs: mustprogress nounwind optsize uwtable
define internal void @_ZN8nanobind6detail13wrap_destructISt6vectorIS2_IZL38nanobind_init_test_stl_bind_vector_extRNS_7module_EE2ElSaIS5_EESaIS7_EEEEvPv(ptr noundef readonly captures(none) %0) #7 personality ptr @__gxx_personality_v0 {
  %2 = load ptr, ptr %0, align 8, !tbaa !322
  %3 = getelementptr inbounds nuw i8, ptr %0, i64 8
  %4 = load ptr, ptr %3, align 8, !tbaa !324
  %.not5.i.i.i.i = icmp eq ptr %2, %4
  br i1 %.not5.i.i.i.i, label %_ZSt8_DestroyIPSt6vectorIZL38nanobind_init_test_stl_bind_vector_extRN8nanobind7module_EE2ElSaIS4_EES6_EvT_S8_RSaIT0_E.exit.i, label %.lr.ph.i.i.i.i

.lr.ph.i.i.i.i:                                   ; preds = %1, %_ZSt8_DestroyISt6vectorIZL38nanobind_init_test_stl_bind_vector_extRN8nanobind7module_EE2ElSaIS4_EEEvPT_.exit.i.i.i.i
  %.06.i.i.i.i = phi ptr [ %10, %_ZSt8_DestroyISt6vectorIZL38nanobind_init_test_stl_bind_vector_extRN8nanobind7module_EE2ElSaIS4_EEEvPT_.exit.i.i.i.i ], [ %2, %1 ]
  %.0.val.i.i.i.i = load ptr, ptr %.06.i.i.i.i, align 8
  %.not.i.i.i.i.i.i.i.i = icmp eq ptr %.0.val.i.i.i.i, null
  br i1 %.not.i.i.i.i.i.i.i.i, label %_ZSt8_DestroyISt6vectorIZL38nanobind_init_test_stl_bind_vector_extRN8nanobind7module_EE2ElSaIS4_EEEvPT_.exit.i.i.i.i, label %5

5:                                                ; preds = %.lr.ph.i.i.i.i
  %6 = getelementptr i8, ptr %.06.i.i.i.i, i64 16
  %.0.val4.i.i.i.i = load ptr, ptr %6, align 8
  %7 = ptrtoint ptr %.0.val4.i.i.i.i to i64
  %8 = ptrtoint ptr %.0.val.i.i.i.i to i64
  %9 = sub i64 %7, %8
  tail call void @_ZdlPvm(ptr noundef nonnull %.0.val.i.i.i.i, i64 noundef %9) #29
  br label %_ZSt8_DestroyISt6vectorIZL38nanobind_init_test_stl_bind_vector_extRN8nanobind7module_EE2ElSaIS4_EEEvPT_.exit.i.i.i.i

_ZSt8_DestroyISt6vectorIZL38nanobind_init_test_stl_bind_vector_extRN8nanobind7module_EE2ElSaIS4_EEEvPT_.exit.i.i.i.i: ; preds = %5, %.lr.ph.i.i.i.i
  %10 = getelementptr inbounds nuw i8, ptr %.06.i.i.i.i, i64 24
  %.not.i.i.i.i = icmp eq ptr %10, %4
  br i1 %.not.i.i.i.i, label %_ZSt8_DestroyIPSt6vectorIZL38nanobind_init_test_stl_bind_vector_extRN8nanobind7module_EE2ElSaIS4_EES6_EvT_S8_RSaIT0_E.exitthread-pre-split.i, label %.lr.ph.i.i.i.i, !llvm.loop !326

_ZSt8_DestroyIPSt6vectorIZL38nanobind_init_test_stl_bind_vector_extRN8nanobind7module_EE2ElSaIS4_EES6_EvT_S8_RSaIT0_E.exitthread-pre-split.i: ; preds = %_ZSt8_DestroyISt6vectorIZL38nanobind_init_test_stl_bind_vector_extRN8nanobind7module_EE2ElSaIS4_EEEvPT_.exit.i.i.i.i
  %.val.pr.i = load ptr, ptr %0, align 8, !tbaa !322
  br label %_ZSt8_DestroyIPSt6vectorIZL38nanobind_init_test_stl_bind_vector_extRN8nanobind7module_EE2ElSaIS4_EES6_EvT_S8_RSaIT0_E.exit.i

_ZSt8_DestroyIPSt6vectorIZL38nanobind_init_test_stl_bind_vector_extRN8nanobind7module_EE2ElSaIS4_EES6_EvT_S8_RSaIT0_E.exit.i: ; preds = %_ZSt8_DestroyIPSt6vectorIZL38nanobind_init_test_stl_bind_vector_extRN8nanobind7module_EE2ElSaIS4_EES6_EvT_S8_RSaIT0_E.exitthread-pre-split.i, %1
  %.val.i = phi ptr [ %.val.pr.i, %_ZSt8_DestroyIPSt6vectorIZL38nanobind_init_test_stl_bind_vector_extRN8nanobind7module_EE2ElSaIS4_EES6_EvT_S8_RSaIT0_E.exitthread-pre-split.i ], [ %2, %1 ]
  %.not.i.i.i = icmp eq ptr %.val.i, null
  br i1 %.not.i.i.i, label %_ZNSt6vectorIS_IZL38nanobind_init_test_stl_bind_vector_extRN8nanobind7module_EE2ElSaIS3_EESaIS5_EED2Ev.exit, label %11

11:                                               ; preds = %_ZSt8_DestroyIPSt6vectorIZL38nanobind_init_test_stl_bind_vector_extRN8nanobind7module_EE2ElSaIS4_EES6_EvT_S8_RSaIT0_E.exit.i
  %12 = getelementptr inbounds nuw i8, ptr %0, i64 16
  %.val1.i = load ptr, ptr %12, align 8, !tbaa !325
  %13 = ptrtoint ptr %.val1.i to i64
  %14 = ptrtoint ptr %.val.i to i64
  %15 = sub i64 %13, %14
  tail call void @_ZdlPvm(ptr noundef nonnull %.val.i, i64 noundef %15) #29
  br label %_ZNSt6vectorIS_IZL38nanobind_init_test_stl_bind_vector_extRN8nanobind7module_EE2ElSaIS3_EESaIS5_EED2Ev.exit

_ZNSt6vectorIS_IZL38nanobind_init_test_stl_bind_vector_extRN8nanobind7module_EE2ElSaIS3_EESaIS5_EED2Ev.exit: ; preds = %_ZSt8_DestroyIPSt6vectorIZL38nanobind_init_test_stl_bind_vector_extRN8nanobind7module_EE2ElSaIS4_EES6_EvT_S8_RSaIT0_E.exit.i, %11
  ret void
}